target datalayout = "e-m:e-p270:32:32-p271:32:32-p272:64:64-i64:64-i128:128-f80:128-n8:16:32:64-S128"
target triple = "x86_64-pc-linux-gnu"

%struct.JNINativeInterface_ = type { ptr, ptr, ptr, ptr, ptr, ptr, ptr, ptr, ptr, ptr, ptr, ptr, ptr, ptr, ptr, ptr, ptr, ptr, ptr, ptr, ptr, ptr, ptr, ptr, ptr, ptr, ptr, ptr, ptr, ptr, ptr, ptr, ptr, ptr, ptr, ptr, ptr, ptr, ptr, ptr, ptr, ptr, ptr, ptr, ptr, ptr, ptr, ptr, ptr, ptr, ptr, ptr, ptr, ptr, ptr, ptr, ptr, ptr, ptr, ptr, ptr, ptr, ptr, ptr, ptr, ptr, ptr, ptr, ptr, ptr, ptr, ptr, ptr, ptr, ptr, ptr, ptr, ptr, ptr, ptr, ptr, ptr, ptr, ptr, ptr, ptr, ptr, ptr, ptr, ptr, ptr, ptr, ptr, ptr, ptr, ptr, ptr, ptr, ptr, ptr, ptr, ptr, ptr, ptr, ptr, ptr, ptr, ptr, ptr, ptr, ptr, ptr, ptr, ptr, ptr, ptr, ptr, ptr, ptr, ptr, ptr, ptr, ptr, ptr, ptr, ptr, ptr, ptr, ptr, ptr, ptr, ptr, ptr, ptr, ptr, ptr, ptr, ptr, ptr, ptr, ptr, ptr, ptr, ptr, ptr, ptr, ptr, ptr, ptr, ptr, ptr, ptr, ptr, ptr, ptr, ptr, ptr, ptr, ptr, ptr, ptr, ptr, ptr, ptr, ptr, ptr, ptr, ptr, ptr, ptr, ptr, ptr, ptr, ptr, ptr, ptr, ptr, ptr, ptr, ptr, ptr, ptr, ptr, ptr, ptr, ptr, ptr, ptr, ptr, ptr, ptr, ptr, ptr, ptr, ptr, ptr, ptr, ptr, ptr, ptr, ptr, ptr, ptr, ptr, ptr, ptr, ptr, ptr, ptr, ptr, ptr, ptr, ptr, ptr, ptr, ptr, ptr, ptr, ptr, ptr, ptr, ptr, ptr, ptr, ptr, ptr, ptr, ptr, ptr, ptr, ptr, ptr, ptr, ptr, ptr }

@awt_CreateEmbeddedFrame.mid = internal global ptr null, align 8
@awt_CreateEmbeddedFrame.cls = internal global ptr null, align 8
@.str.6 = private unnamed_addr constant [27 x i8] c"sun/awt/X11/XEmbeddedFrame\00", align 1
@.str.7 = private unnamed_addr constant [7 x i8] c"<init>\00", align 1
@.str.8 = private unnamed_addr constant [6 x i8] c"(JZ)V\00", align 1

; Function Attrs: nounwind uwtable
define ptr @awt_CreateEmbeddedFrame(ptr noundef %0, ptr noundef %1) #0 {
  %3 = alloca ptr, align 8
  %4 = alloca ptr, align 8
  %5 = alloca ptr, align 8
  store ptr %0, ptr %4, align 8
  store ptr %1, ptr %5, align 8
  %6 = load ptr, ptr @awt_CreateEmbeddedFrame.mid, align 8
  %7 = icmp eq ptr %6, null
  br i1 %7, label %8, label %34

8:                                                ; preds = %2
  %9 = load ptr, ptr %4, align 8
  %10 = load ptr, ptr %9, align 8
  %11 = getelementptr inbounds %struct.JNINativeInterface_, ptr %10, i32 0, i32 6
  %12 = load ptr, ptr %11, align 8
  %13 = load ptr, ptr %4, align 8
  %14 = call ptr %12(ptr noundef %13, ptr noundef @.str.6)
  store ptr %14, ptr @awt_CreateEmbeddedFrame.cls, align 8
  br label %15

15:                                               ; preds = %8
  %16 = load ptr, ptr @awt_CreateEmbeddedFrame.cls, align 8
  %17 = icmp eq ptr %16, null
  br i1 %17, label %18, label %19

18:                                               ; preds = %15
  store ptr null, ptr %3, align 8
  br label %44

19:                                               ; preds = %15
  br label %20

20:                                               ; preds = %19
  %21 = load ptr, ptr %4, align 8
  %22 = load ptr, ptr %21, align 8
  %23 = getelementptr inbounds %struct.JNINativeInterface_, ptr %22, i32 0, i32 33
  %24 = load ptr, ptr %23, align 8
  %25 = load ptr, ptr %4, align 8
  %26 = load ptr, ptr @awt_CreateEmbeddedFrame.cls, align 8
  %27 = call ptr %24(ptr noundef %25, ptr noundef %26, ptr noundef @.str.7, ptr noundef @.str.8)
  store ptr %27, ptr @awt_CreateEmbeddedFrame.mid, align 8
  br label %28

28:                                               ; preds = %20
  %29 = load ptr, ptr @awt_CreateEmbeddedFrame.mid, align 8
  %30 = icmp eq ptr %29, null
  br i1 %30, label %31, label %32

31:                                               ; preds = %28
  store ptr null, ptr %3, align 8
  br label %44

32:                                               ; preds = %28
  br label %33

33:                                               ; preds = %32
  br label %34

34:                                               ; preds = %33, %2
  %35 = load ptr, ptr %4, align 8
  %36 = load ptr, ptr %35, align 8
  %37 = getelementptr inbounds %struct.JNINativeInterface_, ptr %36, i32 0, i32 28
  %38 = load ptr, ptr %37, align 8
  %39 = load ptr, ptr %4, align 8
  %40 = load ptr, ptr @awt_CreateEmbeddedFrame.cls, align 8
  %41 = load ptr, ptr @awt_CreateEmbeddedFrame.mid, align 8
  %42 = load ptr, ptr %5, align 8
  %43 = call ptr (ptr, ptr, ptr, ...) %38(ptr noundef %39, ptr noundef %40, ptr noundef %41, ptr noundef %42, i32 noundef 1)
  store ptr %43, ptr %3, align 8
  br label %44

44:                                               ; preds = %34, %31, %18
  %45 = load ptr, ptr %3, align 8
  ret ptr %45
}