; Function Attrs: nounwind uwtable
define ptr @awt_CreateEmbeddedFrame(ptr noundef %0, ptr noundef %1) local_unnamed_addr #0 {
  %3 = load ptr, ptr @awt_CreateEmbeddedFrame.mid, align 8
  %4 = icmp eq ptr %3, null
  br i1 %4, label %5, label %17

5:                                                ; preds = %2
  %6 = load ptr, ptr %0, align 8
  %7 = getelementptr inbounds i8, ptr %6, i64 48
  %8 = load ptr, ptr %7, align 8
  %9 = tail call ptr %8(ptr noundef nonnull %0, ptr noundef nonnull @.str.6) #5
  store ptr %9, ptr @awt_CreateEmbeddedFrame.cls, align 8
  %10 = icmp eq ptr %9, null
  br i1 %10, label %24, label %11

11:                                               ; preds = %5
  %12 = load ptr, ptr %0, align 8
  %13 = getelementptr inbounds i8, ptr %12, i64 264
  %14 = load ptr, ptr %13, align 8
  %15 = tail call ptr %14(ptr noundef nonnull %0, ptr noundef nonnull %9, ptr noundef nonnull @.str.7, ptr noundef nonnull @.str.8) #5
  store ptr %15, ptr @awt_CreateEmbeddedFrame.mid, align 8
  %16 = icmp eq ptr %15, null
  br i1 %16, label %24, label %17

17:                                               ; preds = %11, %2
  %18 = phi ptr [ %15, %11 ], [ %3, %2 ]
  %19 = load ptr, ptr %0, align 8
  %20 = getelementptr inbounds i8, ptr %19, i64 224
  %21 = load ptr, ptr %20, align 8
  %22 = load ptr, ptr @awt_CreateEmbeddedFrame.cls, align 8
  %23 = tail call ptr (ptr, ptr, ptr, ...) %21(ptr noundef nonnull %0, ptr noundef %22, ptr noundef nonnull %18, ptr noundef %1, i32 noundef 1) #5
  br label %24

24:                                               ; preds = %11, %5, %17
  %.0 = phi ptr [ %23, %17 ], [ null, %5 ], [ null, %11 ]
  ret ptr %.0
}